; Function Attrs: mustprogress nounwind uwtable
define void @_ZN7rocksdb17EventLoggerStreamD2Ev(ptr noundef nonnull readonly align 8 captures(none) dereferenceable(32) %0) unnamed_addr #1 align 2 personality ptr @__gxx_personality_v0 {
  %2 = getelementptr inbounds nuw i8, ptr %0, i64 24
  %3 = load ptr, ptr %2, align 8, !tbaa !15
  %.not = icmp eq ptr %3, null
  br i1 %.not, label %41, label %4

4:                                                ; preds = %1
  %5 = getelementptr inbounds nuw i8, ptr %3, i64 8
  %6 = invoke noundef nonnull align 8 dereferenceable(8) ptr @_ZSt16__ostream_insertIcSt11char_traitsIcEERSt13basic_ostreamIT_T0_ES6_PKS3_l(ptr noundef nonnull align 8 dereferenceable(8) %5, ptr noundef nonnull @.str.1, i64 noundef 1)
          to label %7 unwind label %42

7:                                                ; preds = %4
  %8 = getelementptr inbounds nuw i8, ptr %3, i64 4
  store i8 0, ptr %8, align 4, !tbaa !16
  %9 = load ptr, ptr %0, align 8, !tbaa !4
  %.not4 = icmp eq ptr %9, null
  br i1 %.not4, label %12, label %10

10:                                               ; preds = %7
  %11 = load ptr, ptr %2, align 8, !tbaa !15
  invoke void @_ZN7rocksdb11EventLogger3LogEPNS_6LoggerERKNS_10JSONWriterE(ptr noundef nonnull %9, ptr noundef nonnull align 8 dereferenceable(384) %11)
          to label %19 unwind label %42

12:                                               ; preds = %7
  %13 = getelementptr inbounds nuw i8, ptr %0, i64 8
  %14 = load ptr, ptr %13, align 8, !tbaa !13
  %.not5 = icmp eq ptr %14, null
  br i1 %.not5, label %19, label %15

15:                                               ; preds = %12
  %16 = load ptr, ptr %2, align 8, !tbaa !15
  %17 = getelementptr inbounds nuw i8, ptr %0, i64 16
  %18 = load i64, ptr %17, align 8, !tbaa !14
  invoke void @_ZN7rocksdb11EventLogger11LogToBufferEPNS_9LogBufferERKNS_10JSONWriterEm(ptr noundef nonnull %14, ptr noundef nonnull align 8 dereferenceable(384) %16, i64 noundef %18)
          to label %19 unwind label %42

19:                                               ; preds = %12, %15, %10
  %20 = load ptr, ptr %2, align 8, !tbaa !15
  %21 = icmp eq ptr %20, null
  br i1 %21, label %41, label %22

22:                                               ; preds = %19
  %23 = getelementptr inbounds nuw i8, ptr %20, i64 8
  %24 = load ptr, ptr @_ZTTNSt7__cxx1119basic_ostringstreamIcSt11char_traitsIcESaIcEEE, align 8
  store ptr %24, ptr %23, align 8, !tbaa !30
  %25 = load ptr, ptr getelementptr inbounds nuw (i8, ptr @_ZTTNSt7__cxx1119basic_ostringstreamIcSt11char_traitsIcESaIcEEE, i64 24), align 8
  %26 = getelementptr i8, ptr %24, i64 -24
  %27 = load i64, ptr %26, align 8
  %28 = getelementptr inbounds i8, ptr %23, i64 %27
  store ptr %25, ptr %28, align 8, !tbaa !30
  %29 = getelementptr inbounds nuw i8, ptr %20, i64 16
  store ptr getelementptr inbounds nuw inrange(-16, 112) (i8, ptr @_ZTVNSt7__cxx1115basic_stringbufIcSt11char_traitsIcESaIcEEE, i64 16), ptr %29, align 8, !tbaa !30
  %30 = getelementptr inbounds nuw i8, ptr %20, i64 88
  %31 = load ptr, ptr %30, align 8, !tbaa !32
  %32 = getelementptr inbounds nuw i8, ptr %20, i64 104
  %33 = icmp eq ptr %31, %32
  br i1 %33, label %_ZNKSt7__cxx1112basic_stringIcSt11char_traitsIcESaIcEE11_M_is_localEv.exit.thread.i.i.i.i.i.i, label %_ZNKSt7__cxx1112basic_stringIcSt11char_traitsIcESaIcEE11_M_is_localEv.exit.i.i.i.i.i.i

_ZNKSt7__cxx1112basic_stringIcSt11char_traitsIcESaIcEE11_M_is_localEv.exit.thread.i.i.i.i.i.i: ; preds = %22
  %34 = getelementptr inbounds nuw i8, ptr %20, i64 96
  %35 = load i64, ptr %34, align 8, !tbaa !33
  %36 = icmp ult i64 %35, 16
  tail call void @llvm.assume(i1 %36)
  br label %_ZN7rocksdb10JSONWriterD2Ev.exit

_ZNKSt7__cxx1112basic_stringIcSt11char_traitsIcESaIcEE11_M_is_localEv.exit.i.i.i.i.i.i: ; preds = %22
  %37 = load i64, ptr %32, align 8, !tbaa !34
  %38 = add i64 %37, 1
  tail call void @_ZdlPvm(ptr noundef %31, i64 noundef %38) #12
  br label %_ZN7rocksdb10JSONWriterD2Ev.exit

_ZN7rocksdb10JSONWriterD2Ev.exit:                 ; preds = %_ZNKSt7__cxx1112basic_stringIcSt11char_traitsIcESaIcEE11_M_is_localEv.exit.thread.i.i.i.i.i.i, %_ZNKSt7__cxx1112basic_stringIcSt11char_traitsIcESaIcEE11_M_is_localEv.exit.i.i.i.i.i.i
  store ptr getelementptr inbounds nuw inrange(-16, 112) (i8, ptr @_ZTVSt15basic_streambufIcSt11char_traitsIcEE, i64 16), ptr %29, align 8, !tbaa !30
  %39 = getelementptr inbounds nuw i8, ptr %20, i64 72
  tail call void @_ZNSt6localeD1Ev(ptr noundef nonnull align 8 dereferenceable(8) %39) #13
  %40 = getelementptr inbounds nuw i8, ptr %20, i64 120
  tail call void @_ZNSt8ios_baseD2Ev(ptr noundef nonnull align 8 dereferenceable(264) %40) #13
  tail call void @_ZdlPvm(ptr noundef nonnull %20, i64 noundef 384) #12
  br label %41

41:                                               ; preds = %19, %_ZN7rocksdb10JSONWriterD2Ev.exit, %1
  ret void

42:                                               ; preds = %4, %15, %10
  %43 = landingpad { ptr, i32 }
          catch ptr null
  %44 = extractvalue { ptr, i32 } %43, 0
  tail call void @__clang_call_terminate(ptr %44) #14
  unreachable
}